target datalayout = "e-m:e-p270:32:32-p271:32:32-p272:64:64-i64:64-i128:128-f80:128-n8:16:32:64-S128"
target triple = "x86_64-pc-linux-gnu"

%"struct.Luau::CodeGen::A64::RegisterA64" = type { i8 }
%"class.Luau::CodeGen::A64::AssemblyBuilderA64" = type { %"class.std::vector", %"class.std::vector.0", %"class.std::__cxx11::basic_string", i8, i32, i32, %"class.std::vector.8", %"class.std::vector.0", i8, i8, i64, ptr, ptr }
%"class.std::vector" = type { %"struct.std::_Vector_base" }
%"struct.std::_Vector_base" = type { %"struct.std::_Vector_base<unsigned char, std::allocator<unsigned char>>::_Vector_impl" }
%"struct.std::_Vector_base<unsigned char, std::allocator<unsigned char>>::_Vector_impl" = type { %"struct.std::_Vector_base<unsigned char, std::allocator<unsigned char>>::_Vector_impl_data" }
%"struct.std::_Vector_base<unsigned char, std::allocator<unsigned char>>::_Vector_impl_data" = type { ptr, ptr, ptr }
%"class.std::__cxx11::basic_string" = type { %"struct.std::__cxx11::basic_string<char>::_Alloc_hider", i64, %union.anon }
%"struct.std::__cxx11::basic_string<char>::_Alloc_hider" = type { ptr }
%union.anon = type { i64, [8 x i8] }
%"class.std::vector.8" = type { %"struct.std::_Vector_base.9" }
%"struct.std::_Vector_base.9" = type { %"struct.std::_Vector_base<Luau::CodeGen::A64::AssemblyBuilderA64::Patch, std::allocator<Luau::CodeGen::A64::AssemblyBuilderA64::Patch>>::_Vector_impl" }
%"struct.std::_Vector_base<Luau::CodeGen::A64::AssemblyBuilderA64::Patch, std::allocator<Luau::CodeGen::A64::AssemblyBuilderA64::Patch>>::_Vector_impl" = type { %"struct.std::_Vector_base<Luau::CodeGen::A64::AssemblyBuilderA64::Patch, std::allocator<Luau::CodeGen::A64::AssemblyBuilderA64::Patch>>::_Vector_impl_data" }
%"struct.std::_Vector_base<Luau::CodeGen::A64::AssemblyBuilderA64::Patch, std::allocator<Luau::CodeGen::A64::AssemblyBuilderA64::Patch>>::_Vector_impl_data" = type { ptr, ptr, ptr }
%"class.std::vector.0" = type { %"struct.std::_Vector_base.1" }
%"struct.std::_Vector_base.1" = type { %"struct.std::_Vector_base<unsigned int, std::allocator<unsigned int>>::_Vector_impl" }
%"struct.std::_Vector_base<unsigned int, std::allocator<unsigned int>>::_Vector_impl" = type { %"struct.std::_Vector_base<unsigned int, std::allocator<unsigned int>>::_Vector_impl_data" }
%"struct.std::_Vector_base<unsigned int, std::allocator<unsigned int>>::_Vector_impl_data" = type { ptr, ptr, ptr }

@.str.47 = private unnamed_addr constant [4 x i8] c"adr\00", align 1

; Function Attrs: mustprogress nounwind uwtable
define linkonce_odr dso_local noundef ptr @_ZNKSt6vectorIjSaIjEE11_M_data_ptrIjEEPT_S4_(ptr noundef nonnull align 8 dereferenceable(24) %0, ptr noundef %1) #1 comdat align 2 {
  %3 = alloca ptr, align 8
  %4 = alloca ptr, align 8
  store ptr %0, ptr %3, align 8, !tbaa !44
  store ptr %1, ptr %4, align 8, !tbaa !93
  %5 = load ptr, ptr %4, align 8, !tbaa !93
  ret ptr %5
}

; Function Attrs: mustprogress nounwind uwtable
define linkonce_odr dso_local noundef nonnull align 4 dereferenceable(4) ptr @_ZNSt6vectorIjSaIjEEixEm(ptr noundef nonnull align 8 dereferenceable(24) %0, i64 noundef %1) #1 comdat align 2 {
  %3 = alloca ptr, align 8
  %4 = alloca i64, align 8
  store ptr %0, ptr %3, align 8, !tbaa !44
  store i64 %1, ptr %4, align 8, !tbaa !50
  %5 = load ptr, ptr %3, align 8
  %6 = getelementptr inbounds nuw %"struct.std::_Vector_base.1", ptr %5, i32 0, i32 0
  %7 = getelementptr inbounds nuw %"struct.std::_Vector_base<unsigned int, std::allocator<unsigned int>>::_Vector_impl_data", ptr %6, i32 0, i32 0
  %8 = load ptr, ptr %7, align 8, !tbaa !53
  %9 = load i64, ptr %4, align 8, !tbaa !50
  %10 = getelementptr inbounds nuw i32, ptr %8, i64 %9
  ret ptr %10
}

; Function Attrs: mustprogress uwtable
define dso_local void @_ZN4Luau7CodeGen3A6418AssemblyBuilderA646commitEv(ptr noundef nonnull align 8 dereferenceable(176) %0) #0 align 2 {
  %2 = alloca ptr, align 8
  store ptr %0, ptr %2, align 8, !tbaa !4
  %3 = load ptr, ptr %2, align 8
  %4 = getelementptr inbounds nuw %"class.Luau::CodeGen::A64::AssemblyBuilderA64", ptr %3, i32 0, i32 12
  %5 = load ptr, ptr %4, align 8, !tbaa !41
  %6 = getelementptr inbounds nuw %"class.Luau::CodeGen::A64::AssemblyBuilderA64", ptr %3, i32 0, i32 11
  %7 = load ptr, ptr %6, align 8, !tbaa !40
  %8 = icmp eq ptr %5, %7
  br i1 %8, label %9, label %10

9:                                                ; preds = %1
  call void @_ZN4Luau7CodeGen3A6418AssemblyBuilderA646extendEv(ptr noundef nonnull align 8 dereferenceable(176) %3)
  br label %10

10:                                               ; preds = %9, %1
  ret void
}

; Function Attrs: mustprogress nounwind uwtable
define dso_local void @_ZN4Luau7CodeGen3A6418AssemblyBuilderA645placeEj(ptr noundef nonnull align 8 dereferenceable(176) %0, i32 noundef %1) #1 align 2 {
  %3 = alloca ptr, align 8
  %4 = alloca i32, align 4
  store ptr %0, ptr %3, align 8, !tbaa !4
  store i32 %1, ptr %4, align 4, !tbaa !11
  %5 = load ptr, ptr %3, align 8
  %6 = load i32, ptr %4, align 4, !tbaa !11
  %7 = getelementptr inbounds nuw %"class.Luau::CodeGen::A64::AssemblyBuilderA64", ptr %5, i32 0, i32 11
  %8 = load ptr, ptr %7, align 8, !tbaa !40
  %9 = getelementptr inbounds nuw i32, ptr %8, i32 1
  store ptr %9, ptr %7, align 8, !tbaa !40
  store i32 %6, ptr %8, align 4, !tbaa !11
  ret void
}

; Function Attrs: mustprogress nounwind uwtable
define linkonce_odr dso_local noundef ptr @_ZNKSt6vectorIjSaIjEE4dataEv(ptr noundef nonnull align 8 dereferenceable(24) %0) #1 comdat align 2 {
  %2 = alloca ptr, align 8
  store ptr %0, ptr %2, align 8, !tbaa !44
  %3 = load ptr, ptr %2, align 8
  %4 = getelementptr inbounds nuw %"struct.std::_Vector_base.1", ptr %3, i32 0, i32 0
  %5 = getelementptr inbounds nuw %"struct.std::_Vector_base<unsigned int, std::allocator<unsigned int>>::_Vector_impl_data", ptr %4, i32 0, i32 0
  %6 = load ptr, ptr %5, align 8, !tbaa !53
  %7 = call noundef ptr @_ZNKSt6vectorIjSaIjEE11_M_data_ptrIjEEPT_S4_(ptr noundef nonnull align 8 dereferenceable(24) %3, ptr noundef %6) #18
  ret ptr %7
}

; Function Attrs: mustprogress nounwind uwtable
define dso_local void @_ZN4Luau7CodeGen3A6418AssemblyBuilderA6411patchOffsetEjiNS2_5Patch4KindE(ptr noundef nonnull align 8 dereferenceable(176) %0, i32 noundef %1, i32 noundef %2, i32 noundef %3) #1 align 2 {
  %5 = alloca ptr, align 8
  %6 = alloca i32, align 4
  %7 = alloca i32, align 4
  %8 = alloca i32, align 4
  %9 = alloca i32, align 4
  %10 = alloca i32, align 4
  store ptr %0, ptr %5, align 8, !tbaa !4
  store i32 %1, ptr %6, align 4, !tbaa !11
  store i32 %2, ptr %7, align 4, !tbaa !11
  store i32 %3, ptr %8, align 4, !tbaa !78
  %11 = load ptr, ptr %5, align 8
  call void @llvm.lifetime.start.p0(i64 4, ptr %9) #18
  %12 = load i32, ptr %8, align 4, !tbaa !78
  %13 = icmp eq i32 %12, 0
  %14 = select i1 %13, i32 0, i32 5
  store i32 %14, ptr %9, align 4, !tbaa !11
  call void @llvm.lifetime.start.p0(i64 4, ptr %10) #18
  %15 = load i32, ptr %8, align 4, !tbaa !78
  %16 = icmp eq i32 %15, 1
  br i1 %16, label %17, label %18

17:                                               ; preds = %4
  br label %22

18:                                               ; preds = %4
  %19 = load i32, ptr %8, align 4, !tbaa !78
  %20 = icmp eq i32 %19, 0
  %21 = select i1 %20, i32 67108864, i32 16384
  br label %22

22:                                               ; preds = %18, %17
  %23 = phi i32 [ 524288, %17 ], [ %21, %18 ]
  store i32 %23, ptr %10, align 4, !tbaa !11
  %24 = load i32, ptr %7, align 4, !tbaa !11
  %25 = load i32, ptr %10, align 4, !tbaa !11
  %26 = ashr i32 %25, 1
  %27 = sub nsw i32 0, %26
  %28 = icmp sgt i32 %24, %27
  br i1 %28, label %29, label %47

29:                                               ; preds = %22
  %30 = load i32, ptr %7, align 4, !tbaa !11
  %31 = load i32, ptr %10, align 4, !tbaa !11
  %32 = ashr i32 %31, 1
  %33 = icmp slt i32 %30, %32
  br i1 %33, label %34, label %47

34:                                               ; preds = %29
  %35 = load i32, ptr %7, align 4, !tbaa !11
  %36 = load i32, ptr %10, align 4, !tbaa !11
  %37 = sub nsw i32 %36, 1
  %38 = and i32 %35, %37
  %39 = load i32, ptr %9, align 4, !tbaa !11
  %40 = shl i32 %38, %39
  %41 = getelementptr inbounds nuw %"class.Luau::CodeGen::A64::AssemblyBuilderA64", ptr %11, i32 0, i32 1
  %42 = load i32, ptr %6, align 4, !tbaa !11
  %43 = zext i32 %42 to i64
  %44 = call noundef nonnull align 4 dereferenceable(4) ptr @_ZNSt6vectorIjSaIjEEixEm(ptr noundef nonnull align 8 dereferenceable(24) %41, i64 noundef %43) #18
  %45 = load i32, ptr %44, align 4, !tbaa !11
  %46 = or i32 %45, %40
  store i32 %46, ptr %44, align 4, !tbaa !11
  br label %49

47:                                               ; preds = %29, %22
  %48 = getelementptr inbounds nuw %"class.Luau::CodeGen::A64::AssemblyBuilderA64", ptr %11, i32 0, i32 9
  store i8 1, ptr %48, align 1, !tbaa !38
  br label %49

49:                                               ; preds = %47, %34
  call void @llvm.lifetime.end.p0(i64 4, ptr %10) #18
  call void @llvm.lifetime.end.p0(i64 4, ptr %9) #18
  ret void
}

; Function Attrs: mustprogress nounwind uwtable
define linkonce_odr dso_local noundef i64 @_ZNKSt6vectorIhSaIhEE4sizeEv(ptr noundef nonnull align 8 dereferenceable(24) %0) #1 comdat align 2 {
  %2 = alloca ptr, align 8
  store ptr %0, ptr %2, align 8, !tbaa !42
  %3 = load ptr, ptr %2, align 8
  %4 = getelementptr inbounds nuw %"struct.std::_Vector_base", ptr %3, i32 0, i32 0
  %5 = getelementptr inbounds nuw %"struct.std::_Vector_base<unsigned char, std::allocator<unsigned char>>::_Vector_impl_data", ptr %4, i32 0, i32 1
  %6 = load ptr, ptr %5, align 8, !tbaa !52
  %7 = getelementptr inbounds nuw %"struct.std::_Vector_base", ptr %3, i32 0, i32 0
  %8 = getelementptr inbounds nuw %"struct.std::_Vector_base<unsigned char, std::allocator<unsigned char>>::_Vector_impl_data", ptr %7, i32 0, i32 0
  %9 = load ptr, ptr %8, align 8, !tbaa !51
  %10 = ptrtoint ptr %6 to i64
  %11 = ptrtoint ptr %9 to i64
  %12 = sub i64 %10, %11
  ret i64 %12
}

; Function Attrs: mustprogress uwtable
define dso_local void @_ZN4Luau7CodeGen3A6418AssemblyBuilderA648placeADREPKcNS1_11RegisterA64Eh(ptr noundef nonnull align 8 dereferenceable(176) %0, ptr noundef %1, i8 %2, i8 noundef zeroext %3) #0 align 2 {
  %5 = alloca %"struct.Luau::CodeGen::A64::RegisterA64", align 1
  %6 = alloca ptr, align 8
  %7 = alloca ptr, align 8
  %8 = alloca i8, align 1
  %9 = alloca %"struct.Luau::CodeGen::A64::RegisterA64", align 1
  %10 = getelementptr inbounds nuw %"struct.Luau::CodeGen::A64::RegisterA64", ptr %5, i32 0, i32 0
  store i8 %2, ptr %10, align 1
  store ptr %0, ptr %6, align 8, !tbaa !4
  store ptr %1, ptr %7, align 8, !tbaa !61
  store i8 %3, ptr %8, align 1, !tbaa !58
  %11 = load ptr, ptr %6, align 8
  %12 = getelementptr inbounds nuw %"class.Luau::CodeGen::A64::AssemblyBuilderA64", ptr %11, i32 0, i32 3
  %13 = load i8, ptr %12, align 8, !tbaa !15, !range !13, !noundef !14
  %14 = trunc i8 %13 to i1
  br i1 %14, label %15, label %19

15:                                               ; preds = %4
  %16 = load ptr, ptr %7, align 8, !tbaa !61
  call void @llvm.memcpy.p0.p0.i64(ptr align 1 %9, ptr align 1 %5, i64 1, i1 false), !tbaa.struct !57
  %17 = getelementptr inbounds nuw %"struct.Luau::CodeGen::A64::RegisterA64", ptr %9, i32 0, i32 0
  %18 = load i8, ptr %17, align 1
  call void @_ZN4Luau7CodeGen3A6418AssemblyBuilderA643logEPKcNS1_11RegisterA64E(ptr noundef nonnull align 8 dereferenceable(176) %11, ptr noundef %16, i8 %18)
  br label %19

19:                                               ; preds = %15, %4
  %20 = load i8, ptr %5, align 1
  %21 = lshr i8 %20, 3
  %22 = zext i8 %21 to i32
  %23 = load i8, ptr %8, align 1, !tbaa !58
  %24 = zext i8 %23 to i32
  %25 = shl i32 %24, 24
  %26 = or i32 %22, %25
  call void @_ZN4Luau7CodeGen3A6418AssemblyBuilderA645placeEj(ptr noundef nonnull align 8 dereferenceable(176) %11, i32 noundef %26)
  call void @_ZN4Luau7CodeGen3A6418AssemblyBuilderA646commitEv(ptr noundef nonnull align 8 dereferenceable(176) %11)
  ret void
}

; Function Attrs: inlinehint mustprogress nounwind uwtable
define linkonce_odr dso_local noundef ptr @_Z8writeu64Phm(ptr noundef %0, i64 noundef %1) #4 comdat {
  %3 = alloca ptr, align 8
  %4 = alloca i64, align 8
  store ptr %0, ptr %3, align 8, !tbaa !61
  store i64 %1, ptr %4, align 8, !tbaa !50
  %5 = load ptr, ptr %3, align 8, !tbaa !61
  call void @llvm.memcpy.p0.p0.i64(ptr align 1 %5, ptr align 8 %4, i64 8, i1 false)
  %6 = load ptr, ptr %3, align 8, !tbaa !61
  %7 = getelementptr inbounds nuw i8, ptr %6, i64 8
  ret ptr %7
}

; Function Attrs: mustprogress nounwind uwtable
define linkonce_odr dso_local noundef nonnull align 1 dereferenceable(1) ptr @_ZNSt6vectorIhSaIhEEixEm(ptr noundef nonnull align 8 dereferenceable(24) %0, i64 noundef %1) #1 comdat align 2 {
  %3 = alloca ptr, align 8
  %4 = alloca i64, align 8
  store ptr %0, ptr %3, align 8, !tbaa !42
  store i64 %1, ptr %4, align 8, !tbaa !50
  %5 = load ptr, ptr %3, align 8
  %6 = getelementptr inbounds nuw %"struct.std::_Vector_base", ptr %5, i32 0, i32 0
  %7 = getelementptr inbounds nuw %"struct.std::_Vector_base<unsigned char, std::allocator<unsigned char>>::_Vector_impl_data", ptr %6, i32 0, i32 0
  %8 = load ptr, ptr %7, align 8, !tbaa !51
  %9 = load i64, ptr %4, align 8, !tbaa !50
  %10 = getelementptr inbounds nuw i8, ptr %8, i64 %9
  ret ptr %10
}

; Function Attrs: mustprogress nounwind uwtable
define dso_local noundef i32 @_ZNK4Luau7CodeGen3A6418AssemblyBuilderA6411getCodeSizeEv(ptr noundef nonnull align 8 dereferenceable(176) %0) #1 align 2 {
  %2 = alloca ptr, align 8
  store ptr %0, ptr %2, align 8, !tbaa !4
  %3 = load ptr, ptr %2, align 8
  %4 = getelementptr inbounds nuw %"class.Luau::CodeGen::A64::AssemblyBuilderA64", ptr %3, i32 0, i32 11
  %5 = load ptr, ptr %4, align 8, !tbaa !40
  %6 = getelementptr inbounds nuw %"class.Luau::CodeGen::A64::AssemblyBuilderA64", ptr %3, i32 0, i32 1
  %7 = call noundef ptr @_ZNKSt6vectorIjSaIjEE4dataEv(ptr noundef nonnull align 8 dereferenceable(24) %6) #18
  %8 = ptrtoint ptr %5 to i64
  %9 = ptrtoint ptr %7 to i64
  %10 = sub i64 %8, %9
  %11 = sdiv exact i64 %10, 4
  %12 = trunc i64 %11 to i32
  ret i32 %12
}

; Function Attrs: mustprogress uwtable
define dso_local noundef i64 @_ZN4Luau7CodeGen3A6418AssemblyBuilderA6412allocateDataEmm(ptr noundef nonnull align 8 dereferenceable(176) %0, i64 noundef %1, i64 noundef %2) #0 align 2 {
  %4 = alloca ptr, align 8
  %5 = alloca i64, align 8
  %6 = alloca i64, align 8
  %7 = alloca i64, align 8
  store ptr %0, ptr %4, align 8, !tbaa !4
  store i64 %1, ptr %5, align 8, !tbaa !50
  store i64 %2, ptr %6, align 8, !tbaa !50
  %8 = load ptr, ptr %4, align 8
  %9 = getelementptr inbounds nuw %"class.Luau::CodeGen::A64::AssemblyBuilderA64", ptr %8, i32 0, i32 10
  %10 = load i64, ptr %9, align 8, !tbaa !39
  %11 = load i64, ptr %5, align 8, !tbaa !50
  %12 = icmp ult i64 %10, %11
  br i1 %12, label %13, label %33

13:                                               ; preds = %3
  call void @llvm.lifetime.start.p0(i64 8, ptr %7) #18
  %14 = getelementptr inbounds nuw %"class.Luau::CodeGen::A64::AssemblyBuilderA64", ptr %8, i32 0, i32 0
  %15 = call noundef i64 @_ZNKSt6vectorIhSaIhEE4sizeEv(ptr noundef nonnull align 8 dereferenceable(24) %14) #18
  store i64 %15, ptr %7, align 8, !tbaa !50
  %16 = getelementptr inbounds nuw %"class.Luau::CodeGen::A64::AssemblyBuilderA64", ptr %8, i32 0, i32 0
  %17 = getelementptr inbounds nuw %"class.Luau::CodeGen::A64::AssemblyBuilderA64", ptr %8, i32 0, i32 0
  %18 = call noundef i64 @_ZNKSt6vectorIhSaIhEE4sizeEv(ptr noundef nonnull align 8 dereferenceable(24) %17) #18
  %19 = mul i64 %18, 2
  call void @_ZNSt6vectorIhSaIhEE6resizeEm(ptr noundef nonnull align 8 dereferenceable(24) %16, i64 noundef %19)
  %20 = getelementptr inbounds nuw %"class.Luau::CodeGen::A64::AssemblyBuilderA64", ptr %8, i32 0, i32 0
  %21 = load i64, ptr %7, align 8, !tbaa !50
  %22 = call noundef nonnull align 1 dereferenceable(1) ptr @_ZNSt6vectorIhSaIhEEixEm(ptr noundef nonnull align 8 dereferenceable(24) %20, i64 noundef %21) #18
  %23 = getelementptr inbounds nuw %"class.Luau::CodeGen::A64::AssemblyBuilderA64", ptr %8, i32 0, i32 0
  %24 = call noundef nonnull align 1 dereferenceable(1) ptr @_ZNSt6vectorIhSaIhEEixEm(ptr noundef nonnull align 8 dereferenceable(24) %23, i64 noundef 0) #18
  %25 = load i64, ptr %7, align 8, !tbaa !50
  call void @llvm.memcpy.p0.p0.i64(ptr align 1 %22, ptr align 1 %24, i64 %25, i1 false)
  %26 = getelementptr inbounds nuw %"class.Luau::CodeGen::A64::AssemblyBuilderA64", ptr %8, i32 0, i32 0
  %27 = call noundef nonnull align 1 dereferenceable(1) ptr @_ZNSt6vectorIhSaIhEEixEm(ptr noundef nonnull align 8 dereferenceable(24) %26, i64 noundef 0) #18
  %28 = load i64, ptr %7, align 8, !tbaa !50
  call void @llvm.memset.p0.i64(ptr align 1 %27, i8 0, i64 %28, i1 false)
  %29 = load i64, ptr %7, align 8, !tbaa !50
  %30 = getelementptr inbounds nuw %"class.Luau::CodeGen::A64::AssemblyBuilderA64", ptr %8, i32 0, i32 10
  %31 = load i64, ptr %30, align 8, !tbaa !39
  %32 = add i64 %31, %29
  store i64 %32, ptr %30, align 8, !tbaa !39
  call void @llvm.lifetime.end.p0(i64 8, ptr %7) #18
  br label %33

33:                                               ; preds = %13, %3
  %34 = getelementptr inbounds nuw %"class.Luau::CodeGen::A64::AssemblyBuilderA64", ptr %8, i32 0, i32 10
  %35 = load i64, ptr %34, align 8, !tbaa !39
  %36 = load i64, ptr %5, align 8, !tbaa !50
  %37 = sub i64 %35, %36
  %38 = load i64, ptr %6, align 8, !tbaa !50
  %39 = sub i64 %38, 1
  %40 = xor i64 %39, -1
  %41 = and i64 %37, %40
  %42 = getelementptr inbounds nuw %"class.Luau::CodeGen::A64::AssemblyBuilderA64", ptr %8, i32 0, i32 10
  store i64 %41, ptr %42, align 8, !tbaa !39
  %43 = getelementptr inbounds nuw %"class.Luau::CodeGen::A64::AssemblyBuilderA64", ptr %8, i32 0, i32 10
  %44 = load i64, ptr %43, align 8, !tbaa !39
  ret i64 %44
}

; Function Attrs: mustprogress uwtable
define dso_local void @_ZN4Luau7CodeGen3A6418AssemblyBuilderA643adrENS1_11RegisterA64Em(ptr noundef nonnull align 8 dereferenceable(176) %0, i8 %1, i64 noundef %2) #0 align 2 {
  %4 = alloca %"struct.Luau::CodeGen::A64::RegisterA64", align 1
  %5 = alloca ptr, align 8
  %6 = alloca i64, align 8
  %7 = alloca i64, align 8
  %8 = alloca i32, align 4
  %9 = alloca %"struct.Luau::CodeGen::A64::RegisterA64", align 1
  %10 = getelementptr inbounds nuw %"struct.Luau::CodeGen::A64::RegisterA64", ptr %4, i32 0, i32 0
  store i8 %1, ptr %10, align 1
  store ptr %0, ptr %5, align 8, !tbaa !4
  store i64 %2, ptr %6, align 8, !tbaa !50
  %11 = load ptr, ptr %5, align 8
  call void @llvm.lifetime.start.p0(i64 8, ptr %7) #18
  %12 = call noundef i64 @_ZN4Luau7CodeGen3A6418AssemblyBuilderA6412allocateDataEmm(ptr noundef nonnull align 8 dereferenceable(176) %11, i64 noundef 8, i64 noundef 8)
  store i64 %12, ptr %7, align 8, !tbaa !50
  call void @llvm.lifetime.start.p0(i64 4, ptr %8) #18
  %13 = call noundef i32 @_ZNK4Luau7CodeGen3A6418AssemblyBuilderA6411getCodeSizeEv(ptr noundef nonnull align 8 dereferenceable(176) %11)
  store i32 %13, ptr %8, align 4, !tbaa !11
  %14 = getelementptr inbounds nuw %"class.Luau::CodeGen::A64::AssemblyBuilderA64", ptr %11, i32 0, i32 0
  %15 = load i64, ptr %7, align 8, !tbaa !50
  %16 = call noundef nonnull align 1 dereferenceable(1) ptr @_ZNSt6vectorIhSaIhEEixEm(ptr noundef nonnull align 8 dereferenceable(24) %14, i64 noundef %15) #18
  %17 = load i64, ptr %6, align 8, !tbaa !50
  %18 = call noundef ptr @_Z8writeu64Phm(ptr noundef %16, i64 noundef %17)
  call void @llvm.memcpy.p0.p0.i64(ptr align 1 %9, ptr align 1 %4, i64 1, i1 false), !tbaa.struct !57
  %19 = getelementptr inbounds nuw %"struct.Luau::CodeGen::A64::RegisterA64", ptr %9, i32 0, i32 0
  %20 = load i8, ptr %19, align 1
  call void @_ZN4Luau7CodeGen3A6418AssemblyBuilderA648placeADREPKcNS1_11RegisterA64Eh(ptr noundef nonnull align 8 dereferenceable(176) %11, ptr noundef @.str.47, i8 %20, i8 noundef zeroext 16)
  %21 = load i32, ptr %8, align 4, !tbaa !11
  %22 = load i32, ptr %8, align 4, !tbaa !11
  %23 = sub nsw i32 0, %22
  %24 = getelementptr inbounds nuw %"class.Luau::CodeGen::A64::AssemblyBuilderA64", ptr %11, i32 0, i32 0
  %25 = call noundef i64 @_ZNKSt6vectorIhSaIhEE4sizeEv(ptr noundef nonnull align 8 dereferenceable(24) %24) #18
  %26 = load i64, ptr %7, align 8, !tbaa !50
  %27 = sub i64 %25, %26
  %28 = udiv i64 %27, 4
  %29 = trunc i64 %28 to i32
  %30 = sub nsw i32 %23, %29
  call void @_ZN4Luau7CodeGen3A6418AssemblyBuilderA6411patchOffsetEjiNS2_5Patch4KindE(ptr noundef nonnull align 8 dereferenceable(176) %11, i32 noundef %21, i32 noundef %30, i32 noundef 1)
  call void @llvm.lifetime.end.p0(i64 4, ptr %8) #18
  call void @llvm.lifetime.end.p0(i64 8, ptr %7) #18
  ret void
}