; Function Attrs: mustprogress uwtable
define dso_local void @_ZN4Luau7CodeGen3A6418AssemblyBuilderA643adrENS1_11RegisterA64Em(ptr noundef nonnull align 8 dereferenceable(176) %0, i8 %1, i64 noundef %2) local_unnamed_addr #0 align 2 {
  %4 = getelementptr inbounds nuw i8, ptr %0, i64 152
  %5 = load i64, ptr %4, align 8, !tbaa !36
  %6 = icmp ult i64 %5, 8
  br i1 %6, label %7, label %_ZN4Luau7CodeGen3A6418AssemblyBuilderA6412allocateDataEmm.exit

7:                                                ; preds = %3
  %8 = getelementptr inbounds nuw i8, ptr %0, i64 8
  %9 = load ptr, ptr %8, align 8, !tbaa !34
  %10 = load ptr, ptr %0, align 8, !tbaa !35
  %11 = ptrtoint ptr %9 to i64
  %12 = ptrtoint ptr %10 to i64
  %13 = sub i64 %11, %12
  %14 = shl i64 %13, 1
  tail call void @_ZNSt6vectorIhSaIhEE6resizeEm(ptr noundef nonnull align 8 dereferenceable(176) %0, i64 noundef %14)
  %15 = load ptr, ptr %0, align 8, !tbaa !35
  %16 = getelementptr inbounds nuw i8, ptr %15, i64 %13
  tail call void @llvm.memcpy.p0.p0.i64(ptr nonnull align 1 %16, ptr nonnull align 1 %15, i64 %13, i1 false)
  %17 = load ptr, ptr %0, align 8, !tbaa !35
  tail call void @llvm.memset.p0.i64(ptr nonnull align 1 %17, i8 0, i64 %13, i1 false)
  %18 = load i64, ptr %4, align 8, !tbaa !36
  %19 = add i64 %18, %13
  br label %_ZN4Luau7CodeGen3A6418AssemblyBuilderA6412allocateDataEmm.exit

_ZN4Luau7CodeGen3A6418AssemblyBuilderA6412allocateDataEmm.exit: ; preds = %3, %7
  %20 = phi i64 [ %19, %7 ], [ %5, %3 ]
  %21 = and i64 %20, -8
  %22 = add i64 %21, -8
  store i64 %22, ptr %4, align 8, !tbaa !36
  %23 = getelementptr inbounds nuw i8, ptr %0, i64 160
  %24 = load ptr, ptr %23, align 8, !tbaa !39
  %25 = getelementptr inbounds nuw i8, ptr %0, i64 24
  %26 = load ptr, ptr %25, align 8, !tbaa !38
  %27 = ptrtoint ptr %24 to i64
  %28 = ptrtoint ptr %26 to i64
  %29 = sub i64 %27, %28
  %30 = lshr exact i64 %29, 2
  %31 = trunc i64 %30 to i32
  %32 = load ptr, ptr %0, align 8, !tbaa !35
  %33 = getelementptr inbounds nuw i8, ptr %32, i64 %22
  store i64 %2, ptr %33, align 1
  %34 = getelementptr inbounds nuw i8, ptr %0, i64 80
  %35 = load i8, ptr %34, align 8, !tbaa !14, !range !46, !noundef !47
  %36 = trunc nuw i8 %35 to i1
  br i1 %36, label %37, label %38

37:                                               ; preds = %_ZN4Luau7CodeGen3A6418AssemblyBuilderA6412allocateDataEmm.exit
  tail call void @_ZN4Luau7CodeGen3A6418AssemblyBuilderA643logEPKcNS1_11RegisterA64E(ptr noundef nonnull align 8 dereferenceable(176) %0, ptr noundef nonnull @.str.47, i8 %1)
  br label %38

38:                                               ; preds = %37, %_ZN4Luau7CodeGen3A6418AssemblyBuilderA6412allocateDataEmm.exit
  %39 = lshr i8 %1, 3
  %40 = zext nneg i8 %39 to i32
  %41 = or disjoint i32 %40, 268435456
  %42 = load ptr, ptr %23, align 8, !tbaa !39
  %43 = getelementptr inbounds nuw i8, ptr %42, i64 4
  store ptr %43, ptr %23, align 8, !tbaa !39
  store i32 %41, ptr %42, align 4, !tbaa !48
  %44 = getelementptr inbounds nuw i8, ptr %0, i64 168
  %45 = load ptr, ptr %44, align 8, !tbaa !40
  %46 = icmp eq ptr %45, %43
  br i1 %46, label %47, label %_ZN4Luau7CodeGen3A6418AssemblyBuilderA648placeADREPKcNS1_11RegisterA64Eh.exit

47:                                               ; preds = %38
  tail call void @_ZN4Luau7CodeGen3A6418AssemblyBuilderA646extendEv(ptr noundef nonnull align 8 dereferenceable(176) %0)
  br label %_ZN4Luau7CodeGen3A6418AssemblyBuilderA648placeADREPKcNS1_11RegisterA64Eh.exit

_ZN4Luau7CodeGen3A6418AssemblyBuilderA648placeADREPKcNS1_11RegisterA64Eh.exit: ; preds = %38, %47
  %48 = getelementptr inbounds nuw i8, ptr %0, i64 8
  %49 = load ptr, ptr %48, align 8, !tbaa !34
  %50 = load ptr, ptr %0, align 8, !tbaa !35
  %51 = ptrtoint ptr %49 to i64
  %52 = ptrtoint ptr %50 to i64
  %53 = add i64 %51, 8
  %54 = add i64 %21, %52
  %55 = sub i64 %53, %54
  %56 = lshr i64 %55, 2
  %57 = trunc i64 %56 to i32
  %58 = add i32 %57, %31
  %59 = add i32 %58, 262143
  %or.cond.i = icmp ult i32 %59, 524287
  br i1 %or.cond.i, label %60, label %67

60:                                               ; preds = %_ZN4Luau7CodeGen3A6418AssemblyBuilderA648placeADREPKcNS1_11RegisterA64Eh.exit
  %.neg = mul i32 %58, 16777184
  %61 = and i32 %.neg, 16777184
  %62 = and i64 %30, 4294967295
  %63 = load ptr, ptr %25, align 8, !tbaa !38
  %64 = getelementptr inbounds nuw i32, ptr %63, i64 %62
  %65 = load i32, ptr %64, align 4, !tbaa !48
  %66 = or i32 %65, %61
  store i32 %66, ptr %64, align 4, !tbaa !48
  br label %_ZN4Luau7CodeGen3A6418AssemblyBuilderA6411patchOffsetEjiNS2_5Patch4KindE.exit

67:                                               ; preds = %_ZN4Luau7CodeGen3A6418AssemblyBuilderA648placeADREPKcNS1_11RegisterA64Eh.exit
  %68 = getelementptr inbounds nuw i8, ptr %0, i64 145
  store i8 1, ptr %68, align 1, !tbaa !50
  br label %_ZN4Luau7CodeGen3A6418AssemblyBuilderA6411patchOffsetEjiNS2_5Patch4KindE.exit

_ZN4Luau7CodeGen3A6418AssemblyBuilderA6411patchOffsetEjiNS2_5Patch4KindE.exit: ; preds = %60, %67
  ret void
}